; ModuleID = '22/714.c'
source_filename = "22/714.c"
target datalayout = "e-m:e-p270:32:32-p271:32:32-p272:64:64-i64:64-f80:128-n8:16:32:64-S128"
target triple = "x86_64-pc-linux-gnu"

@.str = private unnamed_addr constant [3 x i8] c"%d\00", align 1
@.str.1 = private unnamed_addr constant [4 x i8] c"No\0A\00", align 1
@.str.2 = private unnamed_addr constant [4 x i8] c"%d\0A\00", align 1

; Function Attrs: noinline nounwind uwtable
define dso_local i32 @main() #0 {
  %1 = alloca i32, align 4
  %2 = alloca i32, align 4
  %3 = alloca i32, align 4
  %4 = alloca i32, align 4
  %5 = alloca i32, align 4
  store i32 0, i32* %1, align 4
  store i32 0, i32* %4, align 4
  store i32 0, i32* %5, align 4
  store i32 0, i32* %2, align 4
  br label %6

6:                                                ; preds = %36, %0
  %7 = load i32, i32* %2, align 4
  %8 = add nsw i32 %7, 1
  store i32 %8, i32* %2, align 4
  %9 = call i32 (i8*, ...) @__isoc99_scanf(i8* getelementptr inbounds ([3 x i8], [3 x i8]* @.str, i64 0, i64 0), i32* %3)
  %10 = load i32, i32* %3, align 4
  %11 = load i32, i32* %4, align 4
  %12 = icmp sgt i32 %10, %11
  br i1 %12, label %13, label %16

13:                                               ; preds = %6
  %14 = load i32, i32* %4, align 4
  store i32 %14, i32* %5, align 4
  %15 = load i32, i32* %3, align 4
  store i32 %15, i32* %4, align 4
  br label %34

16:                                               ; preds = %6
  %17 = load i32, i32* %3, align 4
  %18 = load i32, i32* %5, align 4
  %19 = icmp sgt i32 %17, %18
  br i1 %19, label %20, label %26

20:                                               ; preds = %16
  %21 = load i32, i32* %3, align 4
  %22 = load i32, i32* %4, align 4
  %23 = icmp ne i32 %21, %22
  br i1 %23, label %24, label %26

24:                                               ; preds = %20
  %25 = load i32, i32* %3, align 4
  store i32 %25, i32* %5, align 4
  br label %33

26:                                               ; preds = %20, %16
  %27 = load i32, i32* %3, align 4
  %28 = load i32, i32* %4, align 4
  %29 = icmp eq i32 %27, %28
  br i1 %29, label %30, label %32

30:                                               ; preds = %26
  %31 = load i32, i32* %4, align 4
  store i32 %31, i32* %4, align 4
  br label %32

32:                                               ; preds = %30, %26
  br label %33

33:                                               ; preds = %32, %24
  br label %34

34:                                               ; preds = %33, %13
  %35 = load i32, i32* %5, align 4
  store i32 %35, i32* %5, align 4
  br label %36

36:                                               ; preds = %34
  %37 = call i32 @getchar()
  %38 = icmp ne i32 %37, 10
  br i1 %38, label %6, label %39

39:                                               ; preds = %36
  %40 = load i32, i32* %2, align 4
  %41 = icmp eq i32 %40, 1
  br i1 %41, label %45, label %42

42:                                               ; preds = %39
  %43 = load i32, i32* %5, align 4
  %44 = icmp eq i32 %43, 0
  br i1 %44, label %45, label %47

45:                                               ; preds = %42, %39
  %46 = call i32 (i8*, ...) @printf(i8* getelementptr inbounds ([4 x i8], [4 x i8]* @.str.1, i64 0, i64 0))
  br label %50

47:                                               ; preds = %42
  %48 = load i32, i32* %5, align 4
  %49 = call i32 (i8*, ...) @printf(i8* getelementptr inbounds ([4 x i8], [4 x i8]* @.str.2, i64 0, i64 0), i32 %48)
  br label %50

50:                                               ; preds = %47, %45
  ret i32 0
}

declare dso_local i32 @__isoc99_scanf(i8*, ...) #1

declare dso_local i32 @getchar() #1

declare dso_local i32 @printf(i8*, ...) #1


!llvm.module.flags = !{!0}
!llvm.ident = !{!1}

!0 = !{i32 1, !"wchar_size", i32 4}
!1 = !{!"clang version 10.0.0-4ubuntu1 "}
